; Function Attrs: nounwind sspstrong uwtable
define dso_local void @rb_singleton_class_attached(i64 noundef %0, i64 noundef %1) local_unnamed_addr #0 {
  %3 = icmp eq i64 %0, 0
  %4 = and i64 %0, 7
  %5 = icmp ne i64 %4, 0
  %6 = or i1 %3, %5
  br i1 %6, label %RCLASS_SET_ATTACHED_OBJECT.exit, label %rbimpl_RB_TYPE_P_fastpath.exit.i

rbimpl_RB_TYPE_P_fastpath.exit.i:                 ; preds = %2
  %7 = inttoptr i64 %0 to ptr
  %8 = load i64, ptr %7, align 8, !tbaa !35
  %9 = and i64 %8, 8223
  %or.cond = icmp eq i64 %9, 8194
  br i1 %or.cond, label %10, label %RCLASS_SET_ATTACHED_OBJECT.exit

10:                                               ; preds = %rbimpl_RB_TYPE_P_fastpath.exit.i
  %11 = getelementptr inbounds nuw i8, ptr %7, i64 128
  store i64 %1, ptr %11, align 8, !tbaa !29
  %12 = icmp eq i64 %1, 0
  %13 = and i64 %1, 7
  %14 = icmp ne i64 %13, 0
  %15 = or i1 %12, %14
  br i1 %15, label %RCLASS_SET_ATTACHED_OBJECT.exit, label %16

16:                                               ; preds = %10
  tail call void @rb_gc_writebarrier(i64 noundef %0, i64 noundef %1) #19
  br label %RCLASS_SET_ATTACHED_OBJECT.exit

RCLASS_SET_ATTACHED_OBJECT.exit:                  ; preds = %2, %rbimpl_RB_TYPE_P_fastpath.exit.i, %16, %10
  ret void
}